; Function Attrs: mustprogress noreturn uwtable
define noundef i64 @_ZN2cv6detail14PlaneWarperGpu4warpERKNS_4cuda6GpuMatERKNS_11_InputArrayES8_iiRS3_(ptr nocapture noundef nonnull readnone align 8 dereferenceable(424) %0, ptr nocapture noundef nonnull readnone align 8 dereferenceable(64) %1, ptr nocapture noundef nonnull readnone align 8 dereferenceable(24) %2, ptr nocapture noundef nonnull readnone align 8 dereferenceable(24) %3, i32 noundef %4, i32 noundef %5, ptr nocapture noundef nonnull readnone align 8 dereferenceable(64) %6) local_unnamed_addr #3 align 2 personality ptr @__gxx_personality_v0 {
  %8 = alloca %"class.cv::_InputArray", align 8
  %9 = alloca %"class.cv::MatExpr", align 8
  call void @_ZN2cv3Mat5zerosEiii(ptr dead_on_unwind nonnull writable sret(%"class.cv::MatExpr") align 8 %9, i32 noundef 3, i32 noundef 1, i32 noundef 5)
  invoke void @_ZN2cv11_InputArrayC1ERKNS_7MatExprE(ptr noundef nonnull align 8 dereferenceable(24) %8, ptr noundef nonnull align 8 dereferenceable(352) %9)
          to label %10 unwind label %11

10:                                               ; preds = %7
  invoke fastcc void @_ZL13throw_no_cudav() #7
          to label %.noexc unwind label %13

.noexc:                                           ; preds = %10
  unreachable

11:                                               ; preds = %7
  %12 = landingpad { ptr, i32 }
          cleanup
  br label %15

13:                                               ; preds = %10
  %14 = landingpad { ptr, i32 }
          cleanup
  br label %15

15:                                               ; preds = %13, %11
  %.pn = phi { ptr, i32 } [ %14, %13 ], [ %12, %11 ]
  call void @_ZN2cv7MatExprD2Ev(ptr noundef nonnull align 8 dereferenceable(352) %9) #8
  resume { ptr, i32 } %.pn
}